target datalayout = "e-m:e-p270:32:32-p271:32:32-p272:64:64-i64:64-i128:128-f80:128-n8:16:32:64-S128"
target triple = "x86_64-pc-linux-gnu"

%struct.hb_object_header_t = type { %struct.hb_reference_count_t, %struct.hb_atomic_int_t, %struct.hb_atomic_ptr_t }
%struct.hb_reference_count_t = type { %struct.hb_atomic_int_t }
%struct.hb_atomic_int_t = type { i32 }
%struct.hb_atomic_ptr_t = type { ptr }
%struct.hb_segment_properties_t = type { i32, i32, ptr, ptr, ptr }
%struct.hb_buffer_t = type <{ %struct.hb_object_header_t, ptr, i32, i32, i32, i32, i32, i32, %struct.hb_segment_properties_t, i8, i8, i8, i8, i32, i32, i32, i32, [4 x i8], ptr, ptr, ptr, [2 x [5 x i32]], [2 x i32], i8, i8, [2 x i8], i32, i32, i32, ptr, ptr, ptr, i32, [4 x i8] }>

; Function Attrs: mustprogress nounwind uwtable
define linkonce_odr hidden noundef i32 @_ZNK15hb_atomic_int_t11get_relaxedEv(ptr noundef nonnull align 4 dereferenceable(4) %0) #0 comdat align 2 {
  %2 = alloca ptr, align 8
  %3 = alloca i32, align 4
  store ptr %0, ptr %2, align 8
  %4 = load ptr, ptr %2, align 8
  %5 = getelementptr inbounds %struct.hb_atomic_int_t, ptr %4, i32 0, i32 0
  %6 = load atomic i32, ptr %5 monotonic, align 4
  store i32 %6, ptr %3, align 4
  %7 = load i32, ptr %3, align 4
  ret i32 %7
}

; Function Attrs: mustprogress uwtable
define linkonce_odr hidden noundef i32 @_ZNK15hb_atomic_int_tcviEv(ptr noundef nonnull align 4 dereferenceable(4) %0) #1 comdat align 2 {
  %2 = alloca ptr, align 8
  store ptr %0, ptr %2, align 8
  %3 = load ptr, ptr %2, align 8
  %4 = call noundef i32 @_ZNK15hb_atomic_int_t11get_relaxedEv(ptr noundef nonnull align 4 dereferenceable(4) %3)
  ret i32 %4
}

; Function Attrs: mustprogress uwtable
define internal noundef zeroext i1 @_ZL22hb_object_is_immutableI11hb_buffer_tEbPKT_(ptr noundef %0) #1 {
  %2 = alloca ptr, align 8
  store ptr %0, ptr %2, align 8
  %3 = load ptr, ptr %2, align 8
  %4 = getelementptr inbounds %struct.hb_buffer_t, ptr %3, i32 0, i32 0
  %5 = getelementptr inbounds %struct.hb_object_header_t, ptr %4, i32 0, i32 1
  %6 = call noundef i32 @_ZNK15hb_atomic_int_tcviEv(ptr noundef nonnull align 4 dereferenceable(4) %5)
  %7 = icmp ne i32 %6, 0
  %8 = xor i1 %7, true
  ret i1 %8
}

; Function Attrs: mustprogress uwtable
define hidden void @hb_buffer_set_unicode_funcs(ptr noundef %0, ptr noundef %1) #1 {
  %3 = alloca ptr, align 8
  %4 = alloca ptr, align 8
  store ptr %0, ptr %3, align 8
  store ptr %1, ptr %4, align 8
  %5 = load ptr, ptr %3, align 8
  %6 = call noundef zeroext i1 @_ZL22hb_object_is_immutableI11hb_buffer_tEbPKT_(ptr noundef %5)
  br i1 %6, label %7, label %8

7:                                                ; preds = %2
  br label %22

8:                                                ; preds = %2
  %9 = load ptr, ptr %4, align 8
  %10 = icmp ne ptr %9, null
  br i1 %10, label %13, label %11

11:                                               ; preds = %8
  %12 = call ptr @hb_unicode_funcs_get_default()
  store ptr %12, ptr %4, align 8
  br label %13

13:                                               ; preds = %11, %8
  %14 = load ptr, ptr %4, align 8
  %15 = call ptr @hb_unicode_funcs_reference(ptr noundef %14)
  %16 = load ptr, ptr %3, align 8
  %17 = getelementptr inbounds %struct.hb_buffer_t, ptr %16, i32 0, i32 1
  %18 = load ptr, ptr %17, align 8
  call void @hb_unicode_funcs_destroy(ptr noundef %18)
  %19 = load ptr, ptr %4, align 8
  %20 = load ptr, ptr %3, align 8
  %21 = getelementptr inbounds %struct.hb_buffer_t, ptr %20, i32 0, i32 1
  store ptr %19, ptr %21, align 8
  br label %22

22:                                               ; preds = %13, %7
  ret void
}