; Function Attrs: mustprogress uwtable
define hidden void @hb_buffer_set_unicode_funcs(ptr nocapture noundef %0, ptr noundef %1) local_unnamed_addr #5 {
  %3 = getelementptr inbounds i8, ptr %0, i64 4
  %4 = load atomic i32, ptr %3 monotonic, align 4
  %.not.i = icmp eq i32 %4, 0
  br i1 %.not.i, label %12, label %5

5:                                                ; preds = %2
  %.not = icmp eq ptr %1, null
  br i1 %.not, label %6, label %8

6:                                                ; preds = %5
  %7 = tail call ptr @hb_unicode_funcs_get_default()
  br label %8

8:                                                ; preds = %6, %5
  %.0 = phi ptr [ %1, %5 ], [ %7, %6 ]
  %9 = tail call ptr @hb_unicode_funcs_reference(ptr noundef %.0)
  %10 = getelementptr inbounds i8, ptr %0, i64 16
  %11 = load ptr, ptr %10, align 8
  tail call void @hb_unicode_funcs_destroy(ptr noundef %11)
  store ptr %.0, ptr %10, align 8
  br label %12

12:                                               ; preds = %2, %8
  ret void
}